; Function Attrs: mustprogress uwtable
define hidden void @_ZN10stream_ref5resetEv(ptr noundef nonnull align 8 dereferenceable(81) %this) local_unnamed_addr #4 align 2 {
entry:
  %m_owner = getelementptr inbounds i8, ptr %this, i64 80
  %0 = load i8, ptr %m_owner, align 8
  %1 = and i8 %0, 1
  %tobool.not = icmp eq i8 %1, 0
  br i1 %tobool.not, label %if.end, label %if.then

if.then:                                          ; preds = %entry
  %m_stream = getelementptr inbounds i8, ptr %this, i64 72
  %2 = load ptr, ptr %m_stream, align 8
  %cmp.i = icmp eq ptr %2, null
  br i1 %cmp.i, label %if.end, label %if.end.i

if.end.i:                                         ; preds = %if.then
  %vtable.i = load ptr, ptr %2, align 8
  %3 = load ptr, ptr %vtable.i, align 8
  tail call void %3(ptr noundef nonnull align 8 dereferenceable(8) %2) #25
  tail call void @_ZN6memory10deallocateEPv(ptr noundef nonnull %2)
  br label %if.end

if.end:                                           ; preds = %if.end.i, %if.then, %entry
  %m_name = getelementptr inbounds i8, ptr %this, i64 40
  %call = tail call noundef nonnull align 8 dereferenceable(32) ptr @_ZNSt7__cxx1112basic_stringIcSt11char_traitsIcESaIcEEaSERKS4_(ptr noundef nonnull align 8 dereferenceable(32) %m_name, ptr noundef nonnull align 8 dereferenceable(32) %this)
  %m_default = getelementptr inbounds i8, ptr %this, i64 32
  %4 = load ptr, ptr %m_default, align 8
  %m_stream2 = getelementptr inbounds i8, ptr %this, i64 72
  store ptr %4, ptr %m_stream2, align 8
  store i8 0, ptr %m_owner, align 8
  ret void
}